; Function Attrs: nounwind uwtable
define internal ptr @readline_get_completer(ptr noundef %0, ptr readnone captures(none) %1) #0 {
  %3 = tail call ptr @PyModule_GetState(ptr noundef %0) #14
  %4 = getelementptr inbounds nuw i8, ptr %3, i64 24
  %5 = load ptr, ptr %4, align 8, !tbaa !40
  %6 = icmp eq ptr %5, null
  br i1 %6, label %readline_get_completer_impl.exit, label %7

7:                                                ; preds = %2
  %8 = load i32, ptr %5, align 8, !tbaa !25
  %9 = icmp slt i32 %8, 0
  br i1 %9, label %readline_get_completer_impl.exit, label %10

10:                                               ; preds = %7
  %11 = add nuw i32 %8, 1
  store i32 %11, ptr %5, align 8, !tbaa !25
  br label %readline_get_completer_impl.exit

readline_get_completer_impl.exit:                 ; preds = %2, %7, %10
  %.0.i = phi ptr [ @_Py_NoneStruct, %2 ], [ %5, %7 ], [ %5, %10 ]
  ret ptr %.0.i
}